target datalayout = "e-m:e-p270:32:32-p271:32:32-p272:64:64-i64:64-i128:128-f80:128-n8:16:32:64-S128"
target triple = "x86_64-pc-linux-gnu"

%struct._ir_ctx = type { ptr, i32, i32, i32, i32, i32, i32, i32, i32, i32, i32, %struct._ir_insn, ptr, ptr, ptr, i32, i32, i32, ptr, ptr, ptr, ptr, ptr, ptr, i32, i32, i64, i32, i32, i32, i64, i32, i32, i32, i32, ptr, ptr, ptr, ptr, ptr, ptr, %union.anon.13, ptr, i32, i32, i32, i64, i32, i32, i32, ptr, ptr, ptr, ptr, %struct._ir_strtab, [61 x i32], [14 x i32] }
%struct._ir_insn = type { %struct.anon, %union.anon.5 }
%struct.anon = type { %union.anon, %union.anon.4 }
%union.anon = type { i32 }
%union.anon.4 = type { i32 }
%union.anon.5 = type { %union._ir_val }
%union._ir_val = type { double }
%union.anon.13 = type { ptr }
%struct._ir_strtab = type { ptr, i32, i32, i32, i32, ptr, i32, i32 }
%struct._ir_block = type { i32, i32, i32, i32, i32, i32, i32, %union.anon.14, %union.anon.15, i32, i32, i32, i32 }
%union.anon.14 = type { i32 }
%union.anon.15 = type { i32 }

; Function Attrs: nounwind uwtable
define hidden i32 @ir_next_block(ptr noundef %0, i32 noundef %1) #0 {
  %3 = alloca i32, align 4
  %4 = alloca ptr, align 8
  %5 = alloca i32, align 4
  %6 = alloca ptr, align 8
  %7 = alloca i32, align 4
  %8 = alloca i32, align 4
  store ptr %0, ptr %4, align 8, !tbaa !4
  store i32 %1, ptr %5, align 4, !tbaa !32
  call void @llvm.lifetime.start.p0(i64 8, ptr %6) #12
  %9 = load ptr, ptr %4, align 8, !tbaa !4
  %10 = getelementptr inbounds nuw %struct._ir_ctx, ptr %9, i32 0, i32 21
  %11 = load ptr, ptr %10, align 8, !tbaa !80
  %12 = icmp ne ptr %11, null
  br i1 %12, label %13, label %49

13:                                               ; preds = %2
  call void @llvm.lifetime.start.p0(i64 4, ptr %7) #12
  %14 = load ptr, ptr %4, align 8, !tbaa !4
  %15 = getelementptr inbounds nuw %struct._ir_ctx, ptr %14, i32 0, i32 21
  %16 = load ptr, ptr %15, align 8, !tbaa !80
  %17 = load i32, ptr %5, align 4, !tbaa !32
  %18 = add i32 %17, 1
  store i32 %18, ptr %5, align 4, !tbaa !32
  %19 = zext i32 %18 to i64
  %20 = getelementptr inbounds nuw i32, ptr %16, i64 %19
  %21 = load i32, ptr %20, align 4, !tbaa !32
  store i32 %21, ptr %7, align 4, !tbaa !32
  br label %22

22:                                               ; preds = %38, %13
  %23 = load i32, ptr %7, align 4, !tbaa !32
  %24 = icmp ne i32 %23, 0
  br i1 %24, label %25, label %36

25:                                               ; preds = %22
  %26 = load ptr, ptr %4, align 8, !tbaa !4
  %27 = getelementptr inbounds nuw %struct._ir_ctx, ptr %26, i32 0, i32 18
  %28 = load ptr, ptr %27, align 8, !tbaa !29
  %29 = load i32, ptr %7, align 4, !tbaa !32
  %30 = zext i32 %29 to i64
  %31 = getelementptr inbounds nuw %struct._ir_block, ptr %28, i64 %30
  %32 = getelementptr inbounds nuw %struct._ir_block, ptr %31, i32 0, i32 0
  %33 = load i32, ptr %32, align 4, !tbaa !64
  %34 = and i32 %33, 66
  %35 = icmp eq i32 %34, 64
  br label %36

36:                                               ; preds = %25, %22
  %37 = phi i1 [ false, %22 ], [ %35, %25 ]
  br i1 %37, label %38, label %47

38:                                               ; preds = %36
  %39 = load ptr, ptr %4, align 8, !tbaa !4
  %40 = getelementptr inbounds nuw %struct._ir_ctx, ptr %39, i32 0, i32 21
  %41 = load ptr, ptr %40, align 8, !tbaa !80
  %42 = load i32, ptr %5, align 4, !tbaa !32
  %43 = add i32 %42, 1
  store i32 %43, ptr %5, align 4, !tbaa !32
  %44 = zext i32 %43 to i64
  %45 = getelementptr inbounds nuw i32, ptr %41, i64 %44
  %46 = load i32, ptr %45, align 4, !tbaa !32
  store i32 %46, ptr %7, align 4, !tbaa !32
  br label %22

47:                                               ; preds = %36
  %48 = load i32, ptr %7, align 4, !tbaa !32
  store i32 %48, ptr %3, align 4
  store i32 1, ptr %8, align 4
  call void @llvm.lifetime.end.p0(i64 4, ptr %7) #12
  br label %79

49:                                               ; preds = %2
  %50 = load i32, ptr %5, align 4, !tbaa !32
  %51 = add i32 %50, 1
  store i32 %51, ptr %5, align 4, !tbaa !32
  br label %52

52:                                               ; preds = %76, %49
  br label %53

53:                                               ; preds = %52
  %54 = load i32, ptr %5, align 4, !tbaa !32
  %55 = load ptr, ptr %4, align 8, !tbaa !4
  %56 = getelementptr inbounds nuw %struct._ir_ctx, ptr %55, i32 0, i32 16
  %57 = load i32, ptr %56, align 4, !tbaa !9
  %58 = icmp ugt i32 %54, %57
  br i1 %58, label %59, label %60

59:                                               ; preds = %53
  store i32 0, ptr %3, align 4
  store i32 1, ptr %8, align 4
  br label %79

60:                                               ; preds = %53
  %61 = load ptr, ptr %4, align 8, !tbaa !4
  %62 = getelementptr inbounds nuw %struct._ir_ctx, ptr %61, i32 0, i32 18
  %63 = load ptr, ptr %62, align 8, !tbaa !29
  %64 = load i32, ptr %5, align 4, !tbaa !32
  %65 = zext i32 %64 to i64
  %66 = getelementptr inbounds nuw %struct._ir_block, ptr %63, i64 %65
  store ptr %66, ptr %6, align 8, !tbaa !52
  %67 = load ptr, ptr %6, align 8, !tbaa !52
  %68 = getelementptr inbounds nuw %struct._ir_block, ptr %67, i32 0, i32 0
  %69 = load i32, ptr %68, align 4, !tbaa !64
  %70 = and i32 %69, 66
  %71 = icmp eq i32 %70, 64
  br i1 %71, label %72, label %75

72:                                               ; preds = %60
  %73 = load i32, ptr %5, align 4, !tbaa !32
  %74 = add i32 %73, 1
  store i32 %74, ptr %5, align 4, !tbaa !32
  br label %76

75:                                               ; preds = %60
  br label %77

76:                                               ; preds = %72
  br label %52

77:                                               ; preds = %75
  %78 = load i32, ptr %5, align 4, !tbaa !32
  store i32 %78, ptr %3, align 4
  store i32 1, ptr %8, align 4
  br label %79

79:                                               ; preds = %77, %59, %47
  call void @llvm.lifetime.end.p0(i64 8, ptr %6) #12
  %80 = load i32, ptr %3, align 4
  ret i32 %80
}