; Function Attrs: nofree norecurse nosync nounwind memory(read, inaccessiblemem: none) uwtable
define hidden i32 @ir_next_block(ptr noundef readonly captures(none) %0, i32 noundef %1) local_unnamed_addr #7 {
  %3 = getelementptr inbounds nuw i8, ptr %0, i64 128
  %4 = load ptr, ptr %3, align 8, !tbaa !64
  %.not = icmp eq ptr %4, null
  %5 = getelementptr inbounds nuw i8, ptr %0, i64 104
  br i1 %.not, label %.preheader, label %.preheader21

.preheader:                                       ; preds = %2
  %6 = getelementptr inbounds nuw i8, ptr %0, i64 92
  %7 = load i32, ptr %6, align 4, !tbaa !4
  br label %15

.preheader21:                                     ; preds = %2, %8
  %.018.in = phi i32 [ %.018, %8 ], [ %1, %2 ]
  %.018 = add i32 %.018.in, 1
  %.pn = zext i32 %.018 to i64
  %.0.in = getelementptr inbounds nuw i32, ptr %4, i64 %.pn
  %.0 = load i32, ptr %.0.in, align 4, !tbaa !35
  %.not20 = icmp eq i32 %.0, 0
  br i1 %.not20, label %.critedge, label %8

8:                                                ; preds = %.preheader21
  %9 = load ptr, ptr %5, align 8, !tbaa !27
  %10 = zext i32 %.0 to i64
  %11 = getelementptr inbounds nuw %struct._ir_block, ptr %9, i64 %10
  %12 = load i32, ptr %11, align 4, !tbaa !49
  %13 = and i32 %12, 66
  %14 = icmp eq i32 %13, 64
  br i1 %14, label %.preheader21, label %.critedge

15:                                               ; preds = %.preheader, %17
  %.1.in = phi i32 [ %.1, %17 ], [ %1, %.preheader ]
  %.1 = add i32 %.1.in, 1
  %16 = icmp ugt i32 %.1, %7
  br i1 %16, label %.critedge, label %17

17:                                               ; preds = %15
  %18 = load ptr, ptr %5, align 8, !tbaa !27
  %19 = zext i32 %.1 to i64
  %20 = getelementptr inbounds nuw %struct._ir_block, ptr %18, i64 %19
  %21 = load i32, ptr %20, align 4, !tbaa !49
  %22 = and i32 %21, 66
  %23 = icmp eq i32 %22, 64
  br i1 %23, label %15, label %.critedge

.critedge:                                        ; preds = %8, %.preheader21, %17, %15
  %.017 = phi i32 [ %.1, %17 ], [ 0, %15 ], [ %.0, %8 ], [ 0, %.preheader21 ]
  ret i32 %.017
}